target datalayout = "e-m:e-p270:32:32-p271:32:32-p272:64:64-i64:64-i128:128-f80:128-n8:16:32:64-S128"
target triple = "x86_64-pc-linux-gnu"

%struct.ZSTD_frameSizeInfo = type { i64, i64, i64 }

; Function Attrs: nounwind uwtable
define internal i32 @ERR_isError(i64 noundef %0) #0 {
  %2 = alloca i64, align 8
  store i64 %0, ptr %2, align 8, !tbaa !24
  %3 = load i64, ptr %2, align 8, !tbaa !24
  %4 = icmp ugt i64 %3, -120
  %5 = zext i1 %4 to i32
  ret i32 %5
}

; Function Attrs: nounwind uwtable
define i64 @ZSTD_decompressBound(ptr noundef %0, i64 noundef %1) #0 {
  %3 = alloca i64, align 8
  %4 = alloca ptr, align 8
  %5 = alloca i64, align 8
  %6 = alloca i64, align 8
  %7 = alloca %struct.ZSTD_frameSizeInfo, align 8
  %8 = alloca i64, align 8
  %9 = alloca i64, align 8
  %10 = alloca i32, align 4
  store ptr %0, ptr %4, align 8, !tbaa !23
  store i64 %1, ptr %5, align 8, !tbaa !24
  call void @llvm.lifetime.start.p0(i64 8, ptr %6) #11
  store i64 0, ptr %6, align 8, !tbaa !56
  br label %11

11:                                               ; preds = %40, %2
  %12 = load i64, ptr %5, align 8, !tbaa !24
  %13 = icmp ugt i64 %12, 0
  br i1 %13, label %14, label %41

14:                                               ; preds = %11
  call void @llvm.lifetime.start.p0(i64 24, ptr %7) #11
  %15 = load ptr, ptr %4, align 8, !tbaa !23
  %16 = load i64, ptr %5, align 8, !tbaa !24
  call void @ZSTD_findFrameSizeInfo(ptr dead_on_unwind writable sret(%struct.ZSTD_frameSizeInfo) align 8 %7, ptr noundef %15, i64 noundef %16, i32 noundef 0)
  call void @llvm.lifetime.start.p0(i64 8, ptr %8) #11
  %17 = getelementptr inbounds nuw %struct.ZSTD_frameSizeInfo, ptr %7, i32 0, i32 1
  %18 = load i64, ptr %17, align 8, !tbaa !66
  store i64 %18, ptr %8, align 8, !tbaa !24
  call void @llvm.lifetime.start.p0(i64 8, ptr %9) #11
  %19 = getelementptr inbounds nuw %struct.ZSTD_frameSizeInfo, ptr %7, i32 0, i32 2
  %20 = load i64, ptr %19, align 8, !tbaa !68
  store i64 %20, ptr %9, align 8, !tbaa !56
  %21 = load i64, ptr %8, align 8, !tbaa !24
  %22 = call i32 @ERR_isError(i64 noundef %21)
  %23 = icmp ne i32 %22, 0
  br i1 %23, label %27, label %24

24:                                               ; preds = %14
  %25 = load i64, ptr %9, align 8, !tbaa !56
  %26 = icmp eq i64 %25, -2
  br i1 %26, label %27, label %28

27:                                               ; preds = %24, %14
  store i64 -2, ptr %3, align 8
  store i32 1, ptr %10, align 4
  br label %38

28:                                               ; preds = %24
  %29 = load ptr, ptr %4, align 8, !tbaa !23
  %30 = load i64, ptr %8, align 8, !tbaa !24
  %31 = getelementptr inbounds nuw i8, ptr %29, i64 %30
  store ptr %31, ptr %4, align 8, !tbaa !23
  %32 = load i64, ptr %8, align 8, !tbaa !24
  %33 = load i64, ptr %5, align 8, !tbaa !24
  %34 = sub i64 %33, %32
  store i64 %34, ptr %5, align 8, !tbaa !24
  %35 = load i64, ptr %9, align 8, !tbaa !56
  %36 = load i64, ptr %6, align 8, !tbaa !56
  %37 = add i64 %36, %35
  store i64 %37, ptr %6, align 8, !tbaa !56
  store i32 0, ptr %10, align 4
  br label %38

38:                                               ; preds = %28, %27
  call void @llvm.lifetime.end.p0(i64 8, ptr %9) #11
  call void @llvm.lifetime.end.p0(i64 8, ptr %8) #11
  call void @llvm.lifetime.end.p0(i64 24, ptr %7) #11
  %39 = load i32, ptr %10, align 4
  switch i32 %39, label %43 [
    i32 0, label %40
  ]

40:                                               ; preds = %38
  br label %11, !llvm.loop !69

41:                                               ; preds = %11
  %42 = load i64, ptr %6, align 8, !tbaa !56
  store i64 %42, ptr %3, align 8
  store i32 1, ptr %10, align 4
  br label %43

43:                                               ; preds = %41, %38
  call void @llvm.lifetime.end.p0(i64 8, ptr %6) #11
  %44 = load i64, ptr %3, align 8
  ret i64 %44
}